target datalayout = "e-m:e-p270:32:32-p271:32:32-p272:64:64-i64:64-i128:128-f80:128-n8:16:32:64-S128"
target triple = "x86_64-pc-linux-gnu"

%struct.Vec_Int_t_ = type { i32, i32, ptr }
%struct.Vec_Wec_t_ = type { i32, i32, ptr }
%struct.timespec = type { i64, i64 }

@.str.4 = private unnamed_addr constant [5 x i8] c"Time\00", align 1
@.str.6 = private unnamed_addr constant [2 x i8] c"s\00", align 1
@.str.7 = private unnamed_addr constant [1 x i8] zeroinitializer, align 1
@.str.19 = private unnamed_addr constant [30 x i8] c"Detected %d FAs and %d HAs.  \00", align 1
@.str.20 = private unnamed_addr constant [30 x i8] c"Detected %d topmost adder%s.\0A\00", align 1
@.str.21 = private unnamed_addr constant [34 x i8] c"Adder %5d : Tree with %5d nodes.\0A\00", align 1
@.str.22 = private unnamed_addr constant [5 x i8] c"%s =\00", align 1
@.str.23 = private unnamed_addr constant [11 x i8] c"%9.2f sec\0A\00", align 1

; Function Attrs: inlinehint nounwind uwtable
define internal void @Vec_WecErase(ptr noundef %0) #2 {
  %2 = alloca ptr, align 8
  %3 = alloca i32, align 4
  store ptr %0, ptr %2, align 8, !tbaa !47
  call void @llvm.lifetime.start.p0(i64 4, ptr %3) #11
  store i32 0, ptr %3, align 4, !tbaa !10
  br label %4

4:                                                ; preds = %38, %1
  %5 = load i32, ptr %3, align 4, !tbaa !10
  %6 = load ptr, ptr %2, align 8, !tbaa !47
  %7 = getelementptr inbounds nuw %struct.Vec_Wec_t_, ptr %6, i32 0, i32 0
  %8 = load i32, ptr %7, align 8, !tbaa !56
  %9 = icmp slt i32 %5, %8
  br i1 %9, label %10, label %41

10:                                               ; preds = %4
  %11 = load ptr, ptr %2, align 8, !tbaa !47
  %12 = getelementptr inbounds nuw %struct.Vec_Wec_t_, ptr %11, i32 0, i32 2
  %13 = load ptr, ptr %12, align 8, !tbaa !57
  %14 = load i32, ptr %3, align 4, !tbaa !10
  %15 = sext i32 %14 to i64
  %16 = getelementptr inbounds %struct.Vec_Int_t_, ptr %13, i64 %15
  %17 = getelementptr inbounds nuw %struct.Vec_Int_t_, ptr %16, i32 0, i32 2
  %18 = load ptr, ptr %17, align 8, !tbaa !17
  %19 = icmp ne ptr %18, null
  br i1 %19, label %20, label %36

20:                                               ; preds = %10
  %21 = load ptr, ptr %2, align 8, !tbaa !47
  %22 = getelementptr inbounds nuw %struct.Vec_Wec_t_, ptr %21, i32 0, i32 2
  %23 = load ptr, ptr %22, align 8, !tbaa !57
  %24 = load i32, ptr %3, align 4, !tbaa !10
  %25 = sext i32 %24 to i64
  %26 = getelementptr inbounds %struct.Vec_Int_t_, ptr %23, i64 %25
  %27 = getelementptr inbounds nuw %struct.Vec_Int_t_, ptr %26, i32 0, i32 2
  %28 = load ptr, ptr %27, align 8, !tbaa !17
  call void @free(ptr noundef %28) #11
  %29 = load ptr, ptr %2, align 8, !tbaa !47
  %30 = getelementptr inbounds nuw %struct.Vec_Wec_t_, ptr %29, i32 0, i32 2
  %31 = load ptr, ptr %30, align 8, !tbaa !57
  %32 = load i32, ptr %3, align 4, !tbaa !10
  %33 = sext i32 %32 to i64
  %34 = getelementptr inbounds %struct.Vec_Int_t_, ptr %31, i64 %33
  %35 = getelementptr inbounds nuw %struct.Vec_Int_t_, ptr %34, i32 0, i32 2
  store ptr null, ptr %35, align 8, !tbaa !17
  br label %37

36:                                               ; preds = %10
  br label %37

37:                                               ; preds = %36, %20
  br label %38

38:                                               ; preds = %37
  %39 = load i32, ptr %3, align 4, !tbaa !10
  %40 = add nsw i32 %39, 1
  store i32 %40, ptr %3, align 4, !tbaa !10
  br label %4, !llvm.loop !94

41:                                               ; preds = %4
  %42 = load ptr, ptr %2, align 8, !tbaa !47
  %43 = getelementptr inbounds nuw %struct.Vec_Wec_t_, ptr %42, i32 0, i32 2
  %44 = load ptr, ptr %43, align 8, !tbaa !57
  %45 = icmp ne ptr %44, null
  br i1 %45, label %46, label %52

46:                                               ; preds = %41
  %47 = load ptr, ptr %2, align 8, !tbaa !47
  %48 = getelementptr inbounds nuw %struct.Vec_Wec_t_, ptr %47, i32 0, i32 2
  %49 = load ptr, ptr %48, align 8, !tbaa !57
  call void @free(ptr noundef %49) #11
  %50 = load ptr, ptr %2, align 8, !tbaa !47
  %51 = getelementptr inbounds nuw %struct.Vec_Wec_t_, ptr %50, i32 0, i32 2
  store ptr null, ptr %51, align 8, !tbaa !57
  br label %53

52:                                               ; preds = %41
  br label %53

53:                                               ; preds = %52, %46
  %54 = load ptr, ptr %2, align 8, !tbaa !47
  %55 = getelementptr inbounds nuw %struct.Vec_Wec_t_, ptr %54, i32 0, i32 1
  store i32 0, ptr %55, align 4, !tbaa !54
  %56 = load ptr, ptr %2, align 8, !tbaa !47
  %57 = getelementptr inbounds nuw %struct.Vec_Wec_t_, ptr %56, i32 0, i32 0
  store i32 0, ptr %57, align 8, !tbaa !56
  call void @llvm.lifetime.end.p0(i64 4, ptr %3) #11
  ret void
}

; Function Attrs: inlinehint nounwind uwtable
define internal void @Vec_IntFree(ptr noundef %0) #2 {
  %2 = alloca ptr, align 8
  store ptr %0, ptr %2, align 8, !tbaa !8
  %3 = load ptr, ptr %2, align 8, !tbaa !8
  %4 = getelementptr inbounds nuw %struct.Vec_Int_t_, ptr %3, i32 0, i32 2
  %5 = load ptr, ptr %4, align 8, !tbaa !17
  %6 = icmp ne ptr %5, null
  br i1 %6, label %7, label %13

7:                                                ; preds = %1
  %8 = load ptr, ptr %2, align 8, !tbaa !8
  %9 = getelementptr inbounds nuw %struct.Vec_Int_t_, ptr %8, i32 0, i32 2
  %10 = load ptr, ptr %9, align 8, !tbaa !17
  call void @free(ptr noundef %10) #11
  %11 = load ptr, ptr %2, align 8, !tbaa !8
  %12 = getelementptr inbounds nuw %struct.Vec_Int_t_, ptr %11, i32 0, i32 2
  store ptr null, ptr %12, align 8, !tbaa !17
  br label %14

13:                                               ; preds = %1
  br label %14

14:                                               ; preds = %13, %7
  %15 = load ptr, ptr %2, align 8, !tbaa !8
  %16 = icmp ne ptr %15, null
  br i1 %16, label %17, label %19

17:                                               ; preds = %14
  %18 = load ptr, ptr %2, align 8, !tbaa !8
  call void @free(ptr noundef %18) #11
  store ptr null, ptr %2, align 8, !tbaa !8
  br label %20

19:                                               ; preds = %14
  br label %20

20:                                               ; preds = %19, %17
  ret void
}

; Function Attrs: inlinehint nounwind uwtable
define internal void @Vec_WecFree(ptr noundef %0) #2 {
  %2 = alloca ptr, align 8
  store ptr %0, ptr %2, align 8, !tbaa !47
  %3 = load ptr, ptr %2, align 8, !tbaa !47
  call void @Vec_WecErase(ptr noundef %3)
  %4 = load ptr, ptr %2, align 8, !tbaa !47
  %5 = icmp ne ptr %4, null
  br i1 %5, label %6, label %8

6:                                                ; preds = %1
  %7 = load ptr, ptr %2, align 8, !tbaa !47
  call void @free(ptr noundef %7) #11
  store ptr null, ptr %2, align 8, !tbaa !47
  br label %9

8:                                                ; preds = %1
  br label %9

9:                                                ; preds = %8, %6
  ret void
}

; Function Attrs: inlinehint nounwind uwtable
define internal i32 @Vec_IntEntry(ptr noundef %0, i32 noundef %1) #2 {
  %3 = alloca ptr, align 8
  %4 = alloca i32, align 4
  store ptr %0, ptr %3, align 8, !tbaa !8
  store i32 %1, ptr %4, align 4, !tbaa !10
  %5 = load ptr, ptr %3, align 8, !tbaa !8
  %6 = getelementptr inbounds nuw %struct.Vec_Int_t_, ptr %5, i32 0, i32 2
  %7 = load ptr, ptr %6, align 8, !tbaa !17
  %8 = load i32, ptr %4, align 4, !tbaa !10
  %9 = sext i32 %8 to i64
  %10 = getelementptr inbounds i32, ptr %7, i64 %9
  %11 = load i32, ptr %10, align 4, !tbaa !10
  ret i32 %11
}

; Function Attrs: inlinehint nounwind uwtable
define internal ptr @Vec_WecEntry(ptr noundef %0, i32 noundef %1) #2 {
  %3 = alloca ptr, align 8
  %4 = alloca i32, align 4
  store ptr %0, ptr %3, align 8, !tbaa !47
  store i32 %1, ptr %4, align 4, !tbaa !10
  %5 = load ptr, ptr %3, align 8, !tbaa !47
  %6 = getelementptr inbounds nuw %struct.Vec_Wec_t_, ptr %5, i32 0, i32 2
  %7 = load ptr, ptr %6, align 8, !tbaa !57
  %8 = load i32, ptr %4, align 4, !tbaa !10
  %9 = sext i32 %8 to i64
  %10 = getelementptr inbounds %struct.Vec_Int_t_, ptr %7, i64 %9
  ret ptr %10
}

; Function Attrs: inlinehint nounwind uwtable
define internal i32 @Vec_WecSize(ptr noundef %0) #2 {
  %2 = alloca ptr, align 8
  store ptr %0, ptr %2, align 8, !tbaa !47
  %3 = load ptr, ptr %2, align 8, !tbaa !47
  %4 = getelementptr inbounds nuw %struct.Vec_Wec_t_, ptr %3, i32 0, i32 1
  %5 = load i32, ptr %4, align 4, !tbaa !54
  ret i32 %5
}

; Function Attrs: inlinehint nounwind uwtable
define internal void @Abc_PrintTime(i32 noundef %0, ptr noundef %1, i64 noundef %2) #2 {
  %4 = alloca i32, align 4
  %5 = alloca ptr, align 8
  %6 = alloca i64, align 8
  store i32 %0, ptr %4, align 4, !tbaa !10
  store ptr %1, ptr %5, align 8, !tbaa !78
  store i64 %2, ptr %6, align 8, !tbaa !76
  %7 = load ptr, ptr %5, align 8, !tbaa !78
  call void (i32, ptr, ...) @Abc_Print(i32 noundef 1, ptr noundef @.str.22, ptr noundef %7)
  %8 = load i64, ptr %6, align 8, !tbaa !76
  %9 = sitofp i64 %8 to double
  %10 = fmul double 1.000000e+00, %9
  %11 = fdiv double %10, 1.000000e+06
  call void (i32, ptr, ...) @Abc_Print(i32 noundef 1, ptr noundef @.str.23, double noundef %11)
  ret void
}

; Function Attrs: inlinehint nounwind uwtable
define internal i32 @Vec_IntSize(ptr noundef %0) #2 {
  %2 = alloca ptr, align 8
  store ptr %0, ptr %2, align 8, !tbaa !8
  %3 = load ptr, ptr %2, align 8, !tbaa !8
  %4 = getelementptr inbounds nuw %struct.Vec_Int_t_, ptr %3, i32 0, i32 1
  %5 = load i32, ptr %4, align 4, !tbaa !14
  ret i32 %5
}

; Function Attrs: inlinehint nounwind uwtable
define internal i64 @Abc_Clock() #2 {
  %1 = alloca i64, align 8
  %2 = alloca %struct.timespec, align 8
  %3 = alloca i32, align 4
  %4 = alloca i64, align 8
  call void @llvm.lifetime.start.p0(i64 16, ptr %2) #11
  %5 = call i32 @clock_gettime(i32 noundef 1, ptr noundef %2) #11
  %6 = icmp slt i32 %5, 0
  br i1 %6, label %7, label %8

7:                                                ; preds = %0
  store i64 -1, ptr %1, align 8
  store i32 1, ptr %3, align 4
  br label %19

8:                                                ; preds = %0
  call void @llvm.lifetime.start.p0(i64 8, ptr %4) #11
  %9 = getelementptr inbounds nuw %struct.timespec, ptr %2, i32 0, i32 0
  %10 = load i64, ptr %9, align 8, !tbaa !87
  %11 = mul nsw i64 %10, 1000000
  store i64 %11, ptr %4, align 8, !tbaa !76
  %12 = getelementptr inbounds nuw %struct.timespec, ptr %2, i32 0, i32 1
  %13 = load i64, ptr %12, align 8, !tbaa !89
  %14 = mul nsw i64 %13, 1000000
  %15 = sdiv i64 %14, 1000000000
  %16 = load i64, ptr %4, align 8, !tbaa !76
  %17 = add nsw i64 %16, %15
  store i64 %17, ptr %4, align 8, !tbaa !76
  %18 = load i64, ptr %4, align 8, !tbaa !76
  store i64 %18, ptr %1, align 8
  store i32 1, ptr %3, align 4
  call void @llvm.lifetime.end.p0(i64 8, ptr %4) #11
  br label %19

19:                                               ; preds = %8, %7
  call void @llvm.lifetime.end.p0(i64 16, ptr %2) #11
  %20 = load i64, ptr %1, align 8
  ret i64 %20
}

; Function Attrs: nounwind uwtable
define void @Acec_ManPool(ptr noundef %0) #0 {
  %2 = alloca ptr, align 8
  %3 = alloca ptr, align 8
  %4 = alloca ptr, align 8
  %5 = alloca ptr, align 8
  %6 = alloca i64, align 8
  %7 = alloca ptr, align 8
  %8 = alloca i32, align 4
  %9 = alloca i32, align 4
  store ptr %0, ptr %2, align 8, !tbaa !3
  call void @llvm.lifetime.start.p0(i64 8, ptr %3) #11
  call void @llvm.lifetime.start.p0(i64 8, ptr %4) #11
  call void @llvm.lifetime.start.p0(i64 8, ptr %5) #11
  call void @llvm.lifetime.start.p0(i64 8, ptr %6) #11
  %10 = call i64 @Abc_Clock()
  store i64 %10, ptr %6, align 8, !tbaa !76
  call void @llvm.lifetime.start.p0(i64 8, ptr %7) #11
  %11 = load ptr, ptr %2, align 8, !tbaa !3
  %12 = call ptr @Ree_ManComputeCuts(ptr noundef %11, ptr noundef null, i32 noundef 1)
  store ptr %12, ptr %7, align 8, !tbaa !8
  call void @llvm.lifetime.start.p0(i64 4, ptr %8) #11
  call void @llvm.lifetime.start.p0(i64 4, ptr %9) #11
  %13 = load ptr, ptr %7, align 8, !tbaa !8
  %14 = call i32 @Ree_ManCountFadds(ptr noundef %13)
  store i32 %14, ptr %9, align 4, !tbaa !10
  %15 = load i32, ptr %9, align 4, !tbaa !10
  %16 = load ptr, ptr %7, align 8, !tbaa !8
  %17 = call i32 @Vec_IntSize(ptr noundef %16)
  %18 = sdiv i32 %17, 6
  %19 = load i32, ptr %9, align 4, !tbaa !10
  %20 = sub nsw i32 %18, %19
  %21 = call i32 (ptr, ...) @printf(ptr noundef @.str.19, i32 noundef %15, i32 noundef %20)
  %22 = call i64 @Abc_Clock()
  %23 = load i64, ptr %6, align 8, !tbaa !76
  %24 = sub nsw i64 %22, %23
  call void @Abc_PrintTime(i32 noundef 1, ptr noundef @.str.4, i64 noundef %24)
  %25 = call i64 @Abc_Clock()
  store i64 %25, ptr %6, align 8, !tbaa !76
  %26 = load ptr, ptr %7, align 8, !tbaa !8
  %27 = call i32 @Ree_ManCountFadds(ptr noundef %26)
  store i32 %27, ptr %9, align 4, !tbaa !10
  %28 = load i32, ptr %9, align 4, !tbaa !10
  %29 = load ptr, ptr %7, align 8, !tbaa !8
  %30 = call i32 @Vec_IntSize(ptr noundef %29)
  %31 = sdiv i32 %30, 6
  %32 = load i32, ptr %9, align 4, !tbaa !10
  %33 = sub nsw i32 %31, %32
  %34 = call i32 (ptr, ...) @printf(ptr noundef @.str.19, i32 noundef %28, i32 noundef %33)
  %35 = call i64 @Abc_Clock()
  %36 = load i64, ptr %6, align 8, !tbaa !76
  %37 = sub nsw i64 %35, %36
  call void @Abc_PrintTime(i32 noundef 1, ptr noundef @.str.4, i64 noundef %37)
  %38 = load ptr, ptr %2, align 8, !tbaa !3
  %39 = load ptr, ptr %7, align 8, !tbaa !8
  %40 = call ptr @Acec_ManPoolTopMost(ptr noundef %38, ptr noundef %39)
  store ptr %40, ptr %3, align 8, !tbaa !8
  %41 = load ptr, ptr %3, align 8, !tbaa !8
  %42 = call i32 @Vec_IntSize(ptr noundef %41)
  %43 = load ptr, ptr %3, align 8, !tbaa !8
  %44 = call i32 @Vec_IntSize(ptr noundef %43)
  %45 = icmp sgt i32 %44, 1
  %46 = select i1 %45, ptr @.str.6, ptr @.str.7
  %47 = call i32 (ptr, ...) @printf(ptr noundef @.str.20, i32 noundef %42, ptr noundef %46)
  %48 = load ptr, ptr %2, align 8, !tbaa !3
  %49 = load ptr, ptr %7, align 8, !tbaa !8
  %50 = load ptr, ptr %3, align 8, !tbaa !8
  %51 = call ptr @Gia_PolynCoreOrderArray(ptr noundef %48, ptr noundef %49, ptr noundef %50)
  store ptr %51, ptr %5, align 8, !tbaa !47
  store i32 0, ptr %8, align 4, !tbaa !10
  br label %52

52:                                               ; preds = %70, %1
  %53 = load i32, ptr %8, align 4, !tbaa !10
  %54 = load ptr, ptr %5, align 8, !tbaa !47
  %55 = call i32 @Vec_WecSize(ptr noundef %54)
  %56 = icmp slt i32 %53, %55
  br i1 %56, label %57, label %61

57:                                               ; preds = %52
  %58 = load ptr, ptr %5, align 8, !tbaa !47
  %59 = load i32, ptr %8, align 4, !tbaa !10
  %60 = call ptr @Vec_WecEntry(ptr noundef %58, i32 noundef %59)
  store ptr %60, ptr %4, align 8, !tbaa !8
  br label %61

61:                                               ; preds = %57, %52
  %62 = phi i1 [ false, %52 ], [ true, %57 ]
  br i1 %62, label %63, label %73

63:                                               ; preds = %61
  %64 = load ptr, ptr %3, align 8, !tbaa !8
  %65 = load i32, ptr %8, align 4, !tbaa !10
  %66 = call i32 @Vec_IntEntry(ptr noundef %64, i32 noundef %65)
  %67 = load ptr, ptr %4, align 8, !tbaa !8
  %68 = call i32 @Vec_IntSize(ptr noundef %67)
  %69 = call i32 (ptr, ...) @printf(ptr noundef @.str.21, i32 noundef %66, i32 noundef %68)
  br label %70

70:                                               ; preds = %63
  %71 = load i32, ptr %8, align 4, !tbaa !10
  %72 = add nsw i32 %71, 1
  store i32 %72, ptr %8, align 4, !tbaa !10
  br label %52, !llvm.loop !85

73:                                               ; preds = %61
  %74 = load ptr, ptr %5, align 8, !tbaa !47
  call void @Vec_WecFree(ptr noundef %74)
  %75 = load ptr, ptr %7, align 8, !tbaa !8
  call void @Vec_IntFree(ptr noundef %75)
  %76 = load ptr, ptr %3, align 8, !tbaa !8
  call void @Vec_IntFree(ptr noundef %76)
  call void @llvm.lifetime.end.p0(i64 4, ptr %9) #11
  call void @llvm.lifetime.end.p0(i64 4, ptr %8) #11
  call void @llvm.lifetime.end.p0(i64 8, ptr %7) #11
  call void @llvm.lifetime.end.p0(i64 8, ptr %6) #11
  call void @llvm.lifetime.end.p0(i64 8, ptr %5) #11
  call void @llvm.lifetime.end.p0(i64 8, ptr %4) #11
  call void @llvm.lifetime.end.p0(i64 8, ptr %3) #11
  ret void
}