; Function Attrs: nounwind uwtable
define void @Acec_ManPool(ptr noundef %0) local_unnamed_addr #3 {
  %2 = alloca %struct.timespec, align 8
  %3 = alloca %struct.timespec, align 8
  %4 = alloca %struct.timespec, align 8
  %5 = alloca %struct.timespec, align 8
  call void @llvm.lifetime.start.p0(i64 16, ptr nonnull %5) #21
  %6 = call i32 @clock_gettime(i32 noundef 1, ptr noundef nonnull %5) #21
  %7 = icmp slt i32 %6, 0
  br i1 %7, label %Abc_Clock.exit, label %8

8:                                                ; preds = %1
  %9 = load i64, ptr %5, align 8, !tbaa !70
  %.neg43 = mul i64 %9, -1000000
  %10 = getelementptr inbounds nuw i8, ptr %5, i64 8
  %11 = load i64, ptr %10, align 8, !tbaa !72
  %.neg = sdiv i64 %11, -1000
  %.neg44 = add i64 %.neg, %.neg43
  br label %Abc_Clock.exit

Abc_Clock.exit:                                   ; preds = %1, %8
  %.0.i.neg = phi i64 [ %.neg44, %8 ], [ 1, %1 ]
  call void @llvm.lifetime.end.p0(i64 16, ptr nonnull %5) #21
  %12 = call ptr @Ree_ManComputeCuts(ptr noundef %0, ptr noundef null, i32 noundef 1) #21
  %13 = call i32 @Ree_ManCountFadds(ptr noundef %12) #21
  %14 = getelementptr i8, ptr %12, i64 4
  %.val31 = load i32, ptr %14, align 4, !tbaa !30
  %15 = sdiv i32 %.val31, 6
  %16 = sub nsw i32 %15, %13
  %17 = call i32 (ptr, ...) @printf(ptr noundef nonnull dereferenceable(1) @.str.19, i32 noundef %13, i32 noundef %16)
  call void @llvm.lifetime.start.p0(i64 16, ptr nonnull %4) #21
  %18 = call i32 @clock_gettime(i32 noundef 1, ptr noundef nonnull %4) #21
  %19 = icmp slt i32 %18, 0
  br i1 %19, label %Abc_Clock.exit36, label %20

20:                                               ; preds = %Abc_Clock.exit
  %21 = load i64, ptr %4, align 8, !tbaa !70
  %22 = mul nsw i64 %21, 1000000
  %23 = getelementptr inbounds nuw i8, ptr %4, i64 8
  %24 = load i64, ptr %23, align 8, !tbaa !72
  %25 = sdiv i64 %24, 1000
  %26 = add nsw i64 %25, %22
  br label %Abc_Clock.exit36

Abc_Clock.exit36:                                 ; preds = %Abc_Clock.exit, %20
  %.0.i35 = phi i64 [ %26, %20 ], [ -1, %Abc_Clock.exit ]
  call void @llvm.lifetime.end.p0(i64 16, ptr nonnull %4) #21
  %27 = add i64 %.0.i35, %.0.i.neg
  call void (i32, ptr, ...) @Abc_Print(i32 poison, ptr noundef nonnull @.str.22, ptr noundef nonnull @.str.4)
  %28 = sitofp i64 %27 to double
  %29 = fdiv double %28, 1.000000e+06
  call void (i32, ptr, ...) @Abc_Print(i32 poison, ptr noundef nonnull @.str.23, double noundef %29)
  call void @llvm.lifetime.start.p0(i64 16, ptr nonnull %3) #21
  %30 = call i32 @clock_gettime(i32 noundef 1, ptr noundef nonnull %3) #21
  %31 = icmp slt i32 %30, 0
  br i1 %31, label %Abc_Clock.exit38, label %32

32:                                               ; preds = %Abc_Clock.exit36
  %33 = load i64, ptr %3, align 8, !tbaa !70
  %.neg46 = mul i64 %33, -1000000
  %34 = getelementptr inbounds nuw i8, ptr %3, i64 8
  %35 = load i64, ptr %34, align 8, !tbaa !72
  %.neg45 = sdiv i64 %35, -1000
  %.neg47 = add i64 %.neg45, %.neg46
  br label %Abc_Clock.exit38

Abc_Clock.exit38:                                 ; preds = %Abc_Clock.exit36, %32
  %.0.i37.neg = phi i64 [ %.neg47, %32 ], [ 1, %Abc_Clock.exit36 ]
  call void @llvm.lifetime.end.p0(i64 16, ptr nonnull %3) #21
  %36 = call i32 @Ree_ManCountFadds(ptr noundef nonnull %12) #21
  %.val30 = load i32, ptr %14, align 4, !tbaa !30
  %37 = sdiv i32 %.val30, 6
  %38 = sub nsw i32 %37, %36
  %39 = call i32 (ptr, ...) @printf(ptr noundef nonnull dereferenceable(1) @.str.19, i32 noundef %36, i32 noundef %38)
  call void @llvm.lifetime.start.p0(i64 16, ptr nonnull %2) #21
  %40 = call i32 @clock_gettime(i32 noundef 1, ptr noundef nonnull %2) #21
  %41 = icmp slt i32 %40, 0
  br i1 %41, label %Abc_Clock.exit40, label %42

42:                                               ; preds = %Abc_Clock.exit38
  %43 = load i64, ptr %2, align 8, !tbaa !70
  %44 = mul nsw i64 %43, 1000000
  %45 = getelementptr inbounds nuw i8, ptr %2, i64 8
  %46 = load i64, ptr %45, align 8, !tbaa !72
  %47 = sdiv i64 %46, 1000
  %48 = add nsw i64 %47, %44
  br label %Abc_Clock.exit40

Abc_Clock.exit40:                                 ; preds = %Abc_Clock.exit38, %42
  %.0.i39 = phi i64 [ %48, %42 ], [ -1, %Abc_Clock.exit38 ]
  call void @llvm.lifetime.end.p0(i64 16, ptr nonnull %2) #21
  %49 = add i64 %.0.i39, %.0.i37.neg
  call void (i32, ptr, ...) @Abc_Print(i32 poison, ptr noundef nonnull @.str.22, ptr noundef nonnull @.str.4)
  %50 = sitofp i64 %49 to double
  %51 = fdiv double %50, 1.000000e+06
  call void (i32, ptr, ...) @Abc_Print(i32 poison, ptr noundef nonnull @.str.23, double noundef %51)
  %52 = call ptr @Acec_ManPoolTopMost(ptr noundef %0, ptr noundef nonnull %12)
  %53 = getelementptr i8, ptr %52, i64 4
  %.val29 = load i32, ptr %53, align 4, !tbaa !30
  %54 = icmp sgt i32 %.val29, 1
  %55 = select i1 %54, ptr @.str.6, ptr @.str.7
  %56 = call i32 (ptr, ...) @printf(ptr noundef nonnull dereferenceable(1) @.str.20, i32 noundef %.val29, ptr noundef nonnull %55)
  %57 = call ptr @Gia_PolynCoreOrderArray(ptr noundef %0, ptr noundef nonnull %12, ptr noundef %52) #21
  %58 = getelementptr i8, ptr %57, i64 4
  %.val3348 = load i32, ptr %58, align 4, !tbaa !43
  %59 = icmp sgt i32 %.val3348, 0
  br i1 %59, label %.lr.ph, label %.critedge

.lr.ph:                                           ; preds = %Abc_Clock.exit40
  %60 = getelementptr i8, ptr %57, i64 8
  %61 = getelementptr i8, ptr %52, i64 8
  br label %62

62:                                               ; preds = %.lr.ph, %62
  %indvars.iv = phi i64 [ 0, %.lr.ph ], [ %indvars.iv.next, %62 ]
  %.val34 = load ptr, ptr %60, align 8, !tbaa !46
  %.val32 = load ptr, ptr %61, align 8, !tbaa !29
  %63 = getelementptr inbounds nuw i32, ptr %.val32, i64 %indvars.iv
  %64 = load i32, ptr %63, align 4, !tbaa !31
  %65 = getelementptr %struct.Vec_Int_t_, ptr %.val34, i64 %indvars.iv, i32 1
  %.val = load i32, ptr %65, align 4, !tbaa !30
  %66 = call i32 (ptr, ...) @printf(ptr noundef nonnull dereferenceable(1) @.str.21, i32 noundef %64, i32 noundef %.val)
  %indvars.iv.next = add nuw nsw i64 %indvars.iv, 1
  %.val33 = load i32, ptr %58, align 4, !tbaa !43
  %67 = sext i32 %.val33 to i64
  %68 = icmp slt i64 %indvars.iv.next, %67
  br i1 %68, label %62, label %.critedge, !llvm.loop !79

.critedge:                                        ; preds = %62, %Abc_Clock.exit40
  %69 = load i32, ptr %57, align 8, !tbaa !45
  %70 = icmp sgt i32 %69, 0
  %71 = getelementptr inbounds nuw i8, ptr %57, i64 8
  %.pre.i.i = load ptr, ptr %71, align 8, !tbaa !46
  br i1 %70, label %.lr.ph.i.i, label %._crit_edge.i.i

.lr.ph.i.i:                                       ; preds = %.critedge, %79
  %72 = phi i32 [ %80, %79 ], [ %69, %.critedge ]
  %73 = phi ptr [ %81, %79 ], [ %.pre.i.i, %.critedge ]
  %indvars.iv.i.i = phi i64 [ %indvars.iv.next.i.i, %79 ], [ 0, %.critedge ]
  %74 = getelementptr inbounds nuw %struct.Vec_Int_t_, ptr %73, i64 %indvars.iv.i.i, i32 2
  %75 = load ptr, ptr %74, align 8, !tbaa !29
  %.not15.i.i = icmp eq ptr %75, null
  br i1 %.not15.i.i, label %79, label %76

76:                                               ; preds = %.lr.ph.i.i
  call void @free(ptr noundef nonnull %75) #21
  %77 = load ptr, ptr %71, align 8, !tbaa !46
  %78 = getelementptr inbounds nuw %struct.Vec_Int_t_, ptr %77, i64 %indvars.iv.i.i, i32 2
  store ptr null, ptr %78, align 8, !tbaa !29
  %.pre18.i.i = load i32, ptr %57, align 8, !tbaa !45
  br label %79

79:                                               ; preds = %76, %.lr.ph.i.i
  %80 = phi i32 [ %.pre18.i.i, %76 ], [ %72, %.lr.ph.i.i ]
  %81 = phi ptr [ %77, %76 ], [ %73, %.lr.ph.i.i ]
  %indvars.iv.next.i.i = add nuw nsw i64 %indvars.iv.i.i, 1
  %82 = sext i32 %80 to i64
  %83 = icmp slt i64 %indvars.iv.next.i.i, %82
  br i1 %83, label %.lr.ph.i.i, label %._crit_edge.thread.i.i, !llvm.loop !75

._crit_edge.i.i:                                  ; preds = %.critedge
  %.not.i.i = icmp eq ptr %.pre.i.i, null
  br i1 %.not.i.i, label %Vec_WecFree.exit, label %._crit_edge.thread.i.i

._crit_edge.thread.i.i:                           ; preds = %79, %._crit_edge.i.i
  %84 = phi ptr [ %.pre.i.i, %._crit_edge.i.i ], [ %81, %79 ]
  call void @free(ptr noundef nonnull %84) #21
  br label %Vec_WecFree.exit

Vec_WecFree.exit:                                 ; preds = %._crit_edge.i.i, %._crit_edge.thread.i.i
  call void @free(ptr noundef nonnull %57) #21
  %85 = getelementptr inbounds nuw i8, ptr %12, i64 8
  %86 = load ptr, ptr %85, align 8, !tbaa !29
  %.not.i = icmp eq ptr %86, null
  br i1 %.not.i, label %Vec_IntFree.exit, label %87

87:                                               ; preds = %Vec_WecFree.exit
  call void @free(ptr noundef nonnull %86) #21
  br label %Vec_IntFree.exit

Vec_IntFree.exit:                                 ; preds = %Vec_WecFree.exit, %87
  call void @free(ptr noundef nonnull %12) #21
  %88 = getelementptr inbounds nuw i8, ptr %52, i64 8
  %89 = load ptr, ptr %88, align 8, !tbaa !29
  %.not.i41 = icmp eq ptr %89, null
  br i1 %.not.i41, label %Vec_IntFree.exit42, label %90

90:                                               ; preds = %Vec_IntFree.exit
  call void @free(ptr noundef nonnull %89) #21
  br label %Vec_IntFree.exit42

Vec_IntFree.exit42:                               ; preds = %Vec_IntFree.exit, %90
  call void @free(ptr noundef nonnull %52) #21
  ret void
}